; ModuleID = '56/1099.c'
source_filename = "56/1099.c"
target datalayout = "e-m:e-p270:32:32-p271:32:32-p272:64:64-i64:64-f80:128-n8:16:32:64-S128"
target triple = "x86_64-pc-linux-gnu"

@.str = private unnamed_addr constant [3 x i8] c"%d\00", align 1
@.str.1 = private unnamed_addr constant [5 x i8] c"%d%d\00", align 1
@.str.2 = private unnamed_addr constant [7 x i8] c"%d%d%d\00", align 1
@.str.3 = private unnamed_addr constant [9 x i8] c"%d%d%d%d\00", align 1
@.str.4 = private unnamed_addr constant [11 x i8] c"%d%d%d%d%d\00", align 1

; Function Attrs: noinline nounwind uwtable
define dso_local i32 @main() #0 {
  %1 = alloca i32, align 4
  %2 = alloca i32, align 4
  %3 = alloca i32, align 4
  %4 = alloca i32, align 4
  %5 = alloca i32, align 4
  %6 = alloca i32, align 4
  %7 = alloca i32, align 4
  store i32 0, i32* %1, align 4
  %8 = call i32 (i8*, ...) @__isoc99_scanf(i8* getelementptr inbounds ([3 x i8], [3 x i8]* @.str, i64 0, i64 0), i32* %2)
  %9 = load i32, i32* %2, align 4
  %10 = sdiv i32 %9, 10000
  store i32 %10, i32* %3, align 4
  %11 = load i32, i32* %3, align 4
  %12 = icmp ne i32 %11, 0
  br i1 %12, label %13, label %18

13:                                               ; preds = %0
  %14 = load i32, i32* %2, align 4
  %15 = load i32, i32* %3, align 4
  %16 = mul nsw i32 10000, %15
  %17 = sub nsw i32 %14, %16
  store i32 %17, i32* %2, align 4
  br label %18

18:                                               ; preds = %13, %0
  %19 = load i32, i32* %2, align 4
  %20 = sdiv i32 %19, 1000
  store i32 %20, i32* %4, align 4
  %21 = load i32, i32* %4, align 4
  %22 = icmp ne i32 %21, 0
  br i1 %22, label %23, label %28

23:                                               ; preds = %18
  %24 = load i32, i32* %2, align 4
  %25 = load i32, i32* %4, align 4
  %26 = mul nsw i32 1000, %25
  %27 = sub nsw i32 %24, %26
  store i32 %27, i32* %2, align 4
  br label %28

28:                                               ; preds = %23, %18
  %29 = load i32, i32* %2, align 4
  %30 = sdiv i32 %29, 100
  store i32 %30, i32* %5, align 4
  %31 = load i32, i32* %5, align 4
  %32 = icmp ne i32 %31, 0
  br i1 %32, label %33, label %38

33:                                               ; preds = %28
  %34 = load i32, i32* %2, align 4
  %35 = load i32, i32* %5, align 4
  %36 = mul nsw i32 100, %35
  %37 = sub nsw i32 %34, %36
  store i32 %37, i32* %2, align 4
  br label %38

38:                                               ; preds = %33, %28
  %39 = load i32, i32* %2, align 4
  %40 = sdiv i32 %39, 10
  store i32 %40, i32* %6, align 4
  %41 = load i32, i32* %6, align 4
  %42 = icmp ne i32 %41, 0
  br i1 %42, label %43, label %48

43:                                               ; preds = %38
  %44 = load i32, i32* %2, align 4
  %45 = load i32, i32* %6, align 4
  %46 = mul nsw i32 10, %45
  %47 = sub nsw i32 %44, %46
  store i32 %47, i32* %7, align 4
  br label %48

48:                                               ; preds = %43, %38
  %49 = load i32, i32* %3, align 4
  %50 = icmp eq i32 %49, 0
  br i1 %50, label %51, label %63

51:                                               ; preds = %48
  %52 = load i32, i32* %4, align 4
  %53 = icmp eq i32 %52, 0
  br i1 %53, label %54, label %63

54:                                               ; preds = %51
  %55 = load i32, i32* %5, align 4
  %56 = icmp eq i32 %55, 0
  br i1 %56, label %57, label %63

57:                                               ; preds = %54
  %58 = load i32, i32* %6, align 4
  %59 = icmp eq i32 %58, 0
  br i1 %59, label %60, label %63

60:                                               ; preds = %57
  %61 = load i32, i32* %2, align 4
  %62 = call i32 (i8*, ...) @printf(i8* getelementptr inbounds ([3 x i8], [3 x i8]* @.str, i64 0, i64 0), i32 %61)
  br label %63

63:                                               ; preds = %60, %57, %54, %51, %48
  %64 = load i32, i32* %3, align 4
  %65 = icmp eq i32 %64, 0
  br i1 %65, label %66, label %79

66:                                               ; preds = %63
  %67 = load i32, i32* %4, align 4
  %68 = icmp eq i32 %67, 0
  br i1 %68, label %69, label %79

69:                                               ; preds = %66
  %70 = load i32, i32* %5, align 4
  %71 = icmp eq i32 %70, 0
  br i1 %71, label %72, label %79

72:                                               ; preds = %69
  %73 = load i32, i32* %6, align 4
  %74 = icmp ne i32 %73, 0
  br i1 %74, label %75, label %79

75:                                               ; preds = %72
  %76 = load i32, i32* %7, align 4
  %77 = load i32, i32* %6, align 4
  %78 = call i32 (i8*, ...) @printf(i8* getelementptr inbounds ([5 x i8], [5 x i8]* @.str.1, i64 0, i64 0), i32 %76, i32 %77)
  br label %79

79:                                               ; preds = %75, %72, %69, %66, %63
  %80 = load i32, i32* %3, align 4
  %81 = icmp eq i32 %80, 0
  br i1 %81, label %82, label %93

82:                                               ; preds = %79
  %83 = load i32, i32* %4, align 4
  %84 = icmp eq i32 %83, 0
  br i1 %84, label %85, label %93

85:                                               ; preds = %82
  %86 = load i32, i32* %5, align 4
  %87 = icmp ne i32 %86, 0
  br i1 %87, label %88, label %93

88:                                               ; preds = %85
  %89 = load i32, i32* %7, align 4
  %90 = load i32, i32* %6, align 4
  %91 = load i32, i32* %5, align 4
  %92 = call i32 (i8*, ...) @printf(i8* getelementptr inbounds ([7 x i8], [7 x i8]* @.str.2, i64 0, i64 0), i32 %89, i32 %90, i32 %91)
  br label %93

93:                                               ; preds = %88, %85, %82, %79
  %94 = load i32, i32* %3, align 4
  %95 = icmp eq i32 %94, 0
  br i1 %95, label %96, label %105

96:                                               ; preds = %93
  %97 = load i32, i32* %4, align 4
  %98 = icmp ne i32 %97, 0
  br i1 %98, label %99, label %105

99:                                               ; preds = %96
  %100 = load i32, i32* %7, align 4
  %101 = load i32, i32* %6, align 4
  %102 = load i32, i32* %5, align 4
  %103 = load i32, i32* %4, align 4
  %104 = call i32 (i8*, ...) @printf(i8* getelementptr inbounds ([9 x i8], [9 x i8]* @.str.3, i64 0, i64 0), i32 %100, i32 %101, i32 %102, i32 %103)
  br label %105

105:                                              ; preds = %99, %96, %93
  %106 = load i32, i32* %3, align 4
  %107 = icmp ne i32 %106, 0
  br i1 %107, label %108, label %115

108:                                              ; preds = %105
  %109 = load i32, i32* %7, align 4
  %110 = load i32, i32* %6, align 4
  %111 = load i32, i32* %5, align 4
  %112 = load i32, i32* %4, align 4
  %113 = load i32, i32* %3, align 4
  %114 = call i32 (i8*, ...) @printf(i8* getelementptr inbounds ([11 x i8], [11 x i8]* @.str.4, i64 0, i64 0), i32 %109, i32 %110, i32 %111, i32 %112, i32 %113)
  br label %115

115:                                              ; preds = %108, %105
  ret i32 0
}

declare dso_local i32 @__isoc99_scanf(i8*, ...) #1

declare dso_local i32 @printf(i8*, ...) #1


!llvm.module.flags = !{!0}
!llvm.ident = !{!1}

!0 = !{i32 1, !"wchar_size", i32 4}
!1 = !{!"clang version 10.0.0-4ubuntu1 "}
